target datalayout = "e-m:e-p270:32:32-p271:32:32-p272:64:64-i64:64-i128:128-f80:128-n8:16:32:64-S128"
target triple = "x86_64-pc-linux-gnu"

%"class.icu_77::UVector64" = type { %"class.icu_77::UObject", i32, i32, i32, ptr }
%"class.icu_77::UObject" = type { ptr }

; Function Attrs: mustprogress nounwind uwtable
define noundef zeroext i1 @_ZN6icu_779UVector64eqERKS0_(ptr noundef nonnull align 8 dereferenceable(32) %0, ptr noundef nonnull align 8 dereferenceable(32) %1) #0 align 2 {
  %3 = alloca i1, align 1
  %4 = alloca ptr, align 8
  %5 = alloca ptr, align 8
  %6 = alloca i32, align 4
  %7 = alloca i32, align 4
  store ptr %0, ptr %4, align 8, !tbaa !3
  store ptr %1, ptr %5, align 8, !tbaa !3
  %8 = load ptr, ptr %4, align 8
  call void @llvm.lifetime.start.p0(i64 4, ptr %6) #10
  %9 = getelementptr inbounds nuw %"class.icu_77::UVector64", ptr %8, i32 0, i32 1
  %10 = load i32, ptr %9, align 8, !tbaa !11
  %11 = load ptr, ptr %5, align 8, !tbaa !3
  %12 = getelementptr inbounds nuw %"class.icu_77::UVector64", ptr %11, i32 0, i32 1
  %13 = load i32, ptr %12, align 8, !tbaa !11
  %14 = icmp ne i32 %10, %13
  br i1 %14, label %15, label %16

15:                                               ; preds = %2
  store i1 false, ptr %3, align 1
  store i32 1, ptr %7, align 4
  br label %43

16:                                               ; preds = %2
  store i32 0, ptr %6, align 4, !tbaa !21
  br label %17

17:                                               ; preds = %39, %16
  %18 = load i32, ptr %6, align 4, !tbaa !21
  %19 = getelementptr inbounds nuw %"class.icu_77::UVector64", ptr %8, i32 0, i32 1
  %20 = load i32, ptr %19, align 8, !tbaa !11
  %21 = icmp slt i32 %18, %20
  br i1 %21, label %22, label %42

22:                                               ; preds = %17
  %23 = getelementptr inbounds nuw %"class.icu_77::UVector64", ptr %8, i32 0, i32 4
  %24 = load ptr, ptr %23, align 8, !tbaa !18
  %25 = load i32, ptr %6, align 4, !tbaa !21
  %26 = sext i32 %25 to i64
  %27 = getelementptr inbounds i64, ptr %24, i64 %26
  %28 = load i64, ptr %27, align 8, !tbaa !24
  %29 = load ptr, ptr %5, align 8, !tbaa !3
  %30 = getelementptr inbounds nuw %"class.icu_77::UVector64", ptr %29, i32 0, i32 4
  %31 = load ptr, ptr %30, align 8, !tbaa !18
  %32 = load i32, ptr %6, align 4, !tbaa !21
  %33 = sext i32 %32 to i64
  %34 = getelementptr inbounds i64, ptr %31, i64 %33
  %35 = load i64, ptr %34, align 8, !tbaa !24
  %36 = icmp ne i64 %28, %35
  br i1 %36, label %37, label %38

37:                                               ; preds = %22
  store i1 false, ptr %3, align 1
  store i32 1, ptr %7, align 4
  br label %43

38:                                               ; preds = %22
  br label %39

39:                                               ; preds = %38
  %40 = load i32, ptr %6, align 4, !tbaa !21
  %41 = add nsw i32 %40, 1
  store i32 %41, ptr %6, align 4, !tbaa !21
  br label %17, !llvm.loop !29

42:                                               ; preds = %17
  store i1 true, ptr %3, align 1
  store i32 1, ptr %7, align 4
  br label %43

43:                                               ; preds = %42, %37, %15
  call void @llvm.lifetime.end.p0(i64 4, ptr %6) #10
  %44 = load i1, ptr %3, align 1
  ret i1 %44
}