; Function Attrs: mustprogress nofree norecurse nosync nounwind willreturn memory(read, inaccessiblemem: none) uwtable
define noundef zeroext i1 @_ZN6icu_779UVector64eqERKS0_(ptr noundef nonnull readonly align 8 captures(none) dereferenceable(32) %0, ptr noundef nonnull readonly align 8 captures(none) dereferenceable(32) %1) local_unnamed_addr #8 align 2 {
  %3 = getelementptr inbounds nuw i8, ptr %0, i64 8
  %4 = load i32, ptr %3, align 8, !tbaa !6
  %5 = getelementptr inbounds nuw i8, ptr %1, i64 8
  %6 = load i32, ptr %5, align 8, !tbaa !6
  %.not = icmp eq i32 %4, %6
  br i1 %.not, label %.preheader, label %.loopexit

.preheader:                                       ; preds = %2
  %7 = icmp sgt i32 %4, 0
  br i1 %7, label %.lr.ph, label %.loopexit

.lr.ph:                                           ; preds = %.preheader
  %8 = getelementptr inbounds nuw i8, ptr %0, i64 24
  %9 = load ptr, ptr %8, align 8, !tbaa !15
  %10 = getelementptr inbounds nuw i8, ptr %1, i64 24
  %11 = load ptr, ptr %10, align 8, !tbaa !15
  %wide.trip.count = zext nneg i32 %4 to i64
  br label %12

12:                                               ; preds = %12, %.lr.ph
  %indvars.iv = phi i64 [ 0, %.lr.ph ], [ %indvars.iv.next, %12 ]
  %13 = getelementptr inbounds nuw i64, ptr %9, i64 %indvars.iv
  %14 = load i64, ptr %13, align 8, !tbaa !18
  %15 = getelementptr inbounds nuw i64, ptr %11, i64 %indvars.iv
  %16 = load i64, ptr %15, align 8, !tbaa !18
  %.not8 = icmp eq i64 %14, %16
  %indvars.iv.next = add nuw nsw i64 %indvars.iv, 1
  %exitcond.not = icmp ne i64 %indvars.iv.next, %wide.trip.count
  %or.cond.not = select i1 %.not8, i1 %exitcond.not, i1 false
  br i1 %or.cond.not, label %12, label %.loopexit, !llvm.loop !22

.loopexit:                                        ; preds = %12, %.preheader, %2
  %.07 = phi i1 [ false, %2 ], [ true, %.preheader ], [ %.not8, %12 ]
  ret i1 %.07
}